target datalayout = "e-m:e-p270:32:32-p271:32:32-p272:64:64-i64:64-i128:128-f80:128-n8:16:32:64-S128"
target triple = "x86_64-pc-linux-gnu"

%"struct.vcpkg::LineInfo" = type { i32, ptr }
%"struct.vcpkg::CacheStatus" = type { i8, %"class.std::vector.92", ptr }
%"class.std::vector.92" = type { %"struct.std::_Vector_base.93" }
%"struct.std::_Vector_base.93" = type { %"struct.std::_Vector_base<const vcpkg::IReadBinaryProvider *, std::allocator<const vcpkg::IReadBinaryProvider *>>::_Vector_impl" }
%"struct.std::_Vector_base<const vcpkg::IReadBinaryProvider *, std::allocator<const vcpkg::IReadBinaryProvider *>>::_Vector_impl" = type { %"struct.std::_Vector_base<const vcpkg::IReadBinaryProvider *, std::allocator<const vcpkg::IReadBinaryProvider *>>::_Vector_impl_data" }
%"struct.std::_Vector_base<const vcpkg::IReadBinaryProvider *, std::allocator<const vcpkg::IReadBinaryProvider *>>::_Vector_impl_data" = type { ptr, ptr, ptr }

@.str.1 = private unnamed_addr constant [122 x i8] c"generated/home/dtcxzyw/WorkSpace/Projects/compilers/llvm-opt-benchmark/bench/vcpkg/vcpkg-tool/src/vcpkg/binarycaching.cpp\00", align 1

; Function Attrs: mustprogress nounwind uwtable
define linkonce_odr dso_local void @_ZNSt12_Destroy_auxILb1EE9__destroyIPPKN5vcpkg19IReadBinaryProviderEEEvT_S7_(ptr noundef %0, ptr noundef %1) #1 comdat align 2 {
  %3 = alloca ptr, align 8
  %4 = alloca ptr, align 8
  store ptr %0, ptr %3, align 8
  store ptr %1, ptr %4, align 8
  ret void
}

; Function Attrs: mustprogress uwtable
define linkonce_odr dso_local void @_ZSt8_DestroyIPPKN5vcpkg19IReadBinaryProviderEEvT_S5_(ptr noundef %0, ptr noundef %1) #0 comdat {
  %3 = alloca ptr, align 8
  %4 = alloca ptr, align 8
  store ptr %0, ptr %3, align 8
  store ptr %1, ptr %4, align 8
  %5 = load ptr, ptr %3, align 8
  %6 = load ptr, ptr %4, align 8
  call void @_ZNSt12_Destroy_auxILb1EE9__destroyIPPKN5vcpkg19IReadBinaryProviderEEEvT_S7_(ptr noundef %5, ptr noundef %6)
  ret void
}

; Function Attrs: mustprogress uwtable
define linkonce_odr dso_local void @_ZSt8_DestroyIPPKN5vcpkg19IReadBinaryProviderES3_EvT_S5_RSaIT0_E(ptr noundef %0, ptr noundef %1, ptr noundef nonnull align 1 dereferenceable(1) %2) #0 comdat {
  %4 = alloca ptr, align 8
  %5 = alloca ptr, align 8
  %6 = alloca ptr, align 8
  store ptr %0, ptr %4, align 8
  store ptr %1, ptr %5, align 8
  store ptr %2, ptr %6, align 8
  %7 = load ptr, ptr %4, align 8
  %8 = load ptr, ptr %5, align 8
  call void @_ZSt8_DestroyIPPKN5vcpkg19IReadBinaryProviderEEvT_S5_(ptr noundef %7, ptr noundef %8)
  ret void
}

; Function Attrs: mustprogress nounwind uwtable
define linkonce_odr dso_local noundef nonnull align 1 dereferenceable(1) ptr @_ZNSt12_Vector_baseIPKN5vcpkg19IReadBinaryProviderESaIS3_EE19_M_get_Tp_allocatorEv(ptr noundef nonnull align 8 dereferenceable(24) %0) #1 comdat align 2 {
  %2 = alloca ptr, align 8
  store ptr %0, ptr %2, align 8
  %3 = load ptr, ptr %2, align 8
  %4 = getelementptr inbounds %"struct.std::_Vector_base.93", ptr %3, i32 0, i32 0
  ret ptr %4
}

; Function Attrs: mustprogress nounwind uwtable
define linkonce_odr dso_local void @_ZNSt6vectorIPKN5vcpkg19IReadBinaryProviderESaIS3_EE15_M_erase_at_endEPS3_(ptr noundef nonnull align 8 dereferenceable(24) %0, ptr noundef %1) #1 comdat align 2 personality ptr @__gxx_personality_v0 {
  %3 = alloca ptr, align 8
  %4 = alloca ptr, align 8
  %5 = alloca i64, align 8
  store ptr %0, ptr %3, align 8
  store ptr %1, ptr %4, align 8
  %6 = load ptr, ptr %3, align 8
  %7 = getelementptr inbounds %"struct.std::_Vector_base.93", ptr %6, i32 0, i32 0
  %8 = getelementptr inbounds %"struct.std::_Vector_base<const vcpkg::IReadBinaryProvider *, std::allocator<const vcpkg::IReadBinaryProvider *>>::_Vector_impl_data", ptr %7, i32 0, i32 1
  %9 = load ptr, ptr %8, align 8
  %10 = load ptr, ptr %4, align 8
  %11 = ptrtoint ptr %9 to i64
  %12 = ptrtoint ptr %10 to i64
  %13 = sub i64 %11, %12
  %14 = sdiv exact i64 %13, 8
  store i64 %14, ptr %5, align 8
  %15 = load i64, ptr %5, align 8
  %16 = icmp ne i64 %15, 0
  br i1 %16, label %17, label %27

17:                                               ; preds = %2
  %18 = load ptr, ptr %4, align 8
  %19 = getelementptr inbounds %"struct.std::_Vector_base.93", ptr %6, i32 0, i32 0
  %20 = getelementptr inbounds %"struct.std::_Vector_base<const vcpkg::IReadBinaryProvider *, std::allocator<const vcpkg::IReadBinaryProvider *>>::_Vector_impl_data", ptr %19, i32 0, i32 1
  %21 = load ptr, ptr %20, align 8
  %22 = call noundef nonnull align 1 dereferenceable(1) ptr @_ZNSt12_Vector_baseIPKN5vcpkg19IReadBinaryProviderESaIS3_EE19_M_get_Tp_allocatorEv(ptr noundef nonnull align 8 dereferenceable(24) %6) #8
  invoke void @_ZSt8_DestroyIPPKN5vcpkg19IReadBinaryProviderES3_EvT_S5_RSaIT0_E(ptr noundef %18, ptr noundef %21, ptr noundef nonnull align 1 dereferenceable(1) %22)
          to label %23 unwind label %28

23:                                               ; preds = %17
  %24 = load ptr, ptr %4, align 8
  %25 = getelementptr inbounds %"struct.std::_Vector_base.93", ptr %6, i32 0, i32 0
  %26 = getelementptr inbounds %"struct.std::_Vector_base<const vcpkg::IReadBinaryProvider *, std::allocator<const vcpkg::IReadBinaryProvider *>>::_Vector_impl_data", ptr %25, i32 0, i32 1
  store ptr %24, ptr %26, align 8
  br label %27

27:                                               ; preds = %23, %2
  ret void

28:                                               ; preds = %17
  %29 = landingpad { ptr, i32 }
          catch ptr null
  %30 = extractvalue { ptr, i32 } %29, 0
  call void @__clang_call_terminate(ptr %30) #17
  unreachable
}

; Function Attrs: mustprogress nounwind uwtable
define linkonce_odr dso_local void @_ZNSt6vectorIPKN5vcpkg19IReadBinaryProviderESaIS3_EE5clearEv(ptr noundef nonnull align 8 dereferenceable(24) %0) #1 comdat align 2 {
  %2 = alloca ptr, align 8
  store ptr %0, ptr %2, align 8
  %3 = load ptr, ptr %2, align 8
  %4 = getelementptr inbounds %"struct.std::_Vector_base.93", ptr %3, i32 0, i32 0
  %5 = getelementptr inbounds %"struct.std::_Vector_base<const vcpkg::IReadBinaryProvider *, std::allocator<const vcpkg::IReadBinaryProvider *>>::_Vector_impl_data", ptr %4, i32 0, i32 0
  %6 = load ptr, ptr %5, align 8
  call void @_ZNSt6vectorIPKN5vcpkg19IReadBinaryProviderESaIS3_EE15_M_erase_at_endEPS3_(ptr noundef nonnull align 8 dereferenceable(24) %3, ptr noundef %6) #8
  ret void
}

; Function Attrs: mustprogress nounwind uwtable
define dso_local void @_ZN5vcpkg11CacheStatus13mark_restoredEv(ptr noundef nonnull align 8 dereferenceable(40) %0) #1 align 2 personality ptr @__gxx_personality_v0 {
  %2 = alloca ptr, align 8
  %3 = alloca %"struct.vcpkg::LineInfo", align 8
  store ptr %0, ptr %2, align 8
  %4 = load ptr, ptr %2, align 8
  %5 = getelementptr inbounds %"struct.vcpkg::CacheStatus", ptr %4, i32 0, i32 0
  %6 = load i8, ptr %5, align 8
  switch i8 %6, label %12 [
    i8 0, label %7
    i8 1, label %9
    i8 2, label %11
  ]

7:                                                ; preds = %1
  %8 = getelementptr inbounds %"struct.vcpkg::CacheStatus", ptr %4, i32 0, i32 1
  call void @_ZNSt6vectorIPKN5vcpkg19IReadBinaryProviderESaIS3_EE5clearEv(ptr noundef nonnull align 8 dereferenceable(24) %8) #8
  br label %9

9:                                                ; preds = %7, %1
  %10 = getelementptr inbounds %"struct.vcpkg::CacheStatus", ptr %4, i32 0, i32 0
  store i8 2, ptr %10, align 8
  br label %16

11:                                               ; preds = %1
  br label %16

12:                                               ; preds = %1
  %13 = getelementptr inbounds %"struct.vcpkg::LineInfo", ptr %3, i32 0, i32 0
  store i32 2262, ptr %13, align 8
  %14 = getelementptr inbounds %"struct.vcpkg::LineInfo", ptr %3, i32 0, i32 1
  store ptr @.str.1, ptr %14, align 8
  invoke void @_ZN5vcpkg6Checks11unreachableERKNS_8LineInfoE(ptr noundef nonnull align 8 dereferenceable(16) %3) #18
          to label %15 unwind label %17

15:                                               ; preds = %12
  unreachable

16:                                               ; preds = %11, %9
  ret void

17:                                               ; preds = %12
  %18 = landingpad { ptr, i32 }
          catch ptr null
  %19 = extractvalue { ptr, i32 } %18, 0
  call void @__clang_call_terminate(ptr %19) #17
  unreachable
}