; Function Attrs: mustprogress nounwind uwtable
define dso_local void @_ZN5vcpkg11CacheStatus13mark_restoredEv(ptr nocapture noundef nonnull align 8 dereferenceable(40) %0) local_unnamed_addr #4 align 2 personality ptr @__gxx_personality_v0 {
  %2 = alloca %"struct.vcpkg::LineInfo", align 8
  %3 = load i8, ptr %0, align 8
  switch i8 %3, label %10 [
    i8 0, label %4
    i8 1, label %_ZNSt6vectorIPKN5vcpkg19IReadBinaryProviderESaIS3_EE5clearEv.exit
    i8 2, label %13
  ]

4:                                                ; preds = %1
  %5 = getelementptr inbounds i8, ptr %0, i64 8
  %6 = load ptr, ptr %5, align 8
  %7 = getelementptr inbounds i8, ptr %0, i64 16
  %8 = load ptr, ptr %7, align 8
  %.not.i.i = icmp eq ptr %8, %6
  br i1 %.not.i.i, label %_ZNSt6vectorIPKN5vcpkg19IReadBinaryProviderESaIS3_EE5clearEv.exit, label %9

9:                                                ; preds = %4
  store ptr %6, ptr %7, align 8
  br label %_ZNSt6vectorIPKN5vcpkg19IReadBinaryProviderESaIS3_EE5clearEv.exit

_ZNSt6vectorIPKN5vcpkg19IReadBinaryProviderESaIS3_EE5clearEv.exit: ; preds = %9, %4, %1
  store i8 2, ptr %0, align 8
  br label %13

10:                                               ; preds = %1
  store i32 2262, ptr %2, align 8
  %11 = getelementptr inbounds i8, ptr %2, i64 8
  store ptr @.str.1, ptr %11, align 8
  invoke void @_ZN5vcpkg6Checks11unreachableERKNS_8LineInfoE(ptr noundef nonnull align 8 dereferenceable(16) %2) #26
          to label %12 unwind label %14

12:                                               ; preds = %10
  unreachable

13:                                               ; preds = %1, %_ZNSt6vectorIPKN5vcpkg19IReadBinaryProviderESaIS3_EE5clearEv.exit
  ret void

14:                                               ; preds = %10
  %15 = landingpad { ptr, i32 }
          catch ptr null
  %16 = extractvalue { ptr, i32 } %15, 0
  call void @__clang_call_terminate(ptr %16) #27
  unreachable
}